; Function Attrs: mustprogress nounwind uwtable
define hidden void @_ZN5ceres8internal28BlockCRSJacobiPreconditionerD0Ev(ptr noundef nonnull align 8 dereferenceable(112) initializes((0, 8)) %0) unnamed_addr #3 align 2 personality ptr @__gxx_personality_v0 {
  store ptr getelementptr inbounds nuw inrange(-16, 112) (i8, ptr @_ZTVN5ceres8internal28BlockCRSJacobiPreconditionerE, i64 16), ptr %0, align 8, !tbaa !3
  %2 = getelementptr inbounds nuw i8, ptr %0, i64 104
  %3 = load ptr, ptr %2, align 8, !tbaa !170
  %.not.i.i = icmp eq ptr %3, null
  br i1 %.not.i.i, label %_ZNSt10unique_ptrIN5ceres8internal25CompressedRowSparseMatrixESt14default_deleteIS2_EED2Ev.exit.i, label %_ZNKSt14default_deleteIN5ceres8internal25CompressedRowSparseMatrixEEclEPS2_.exit.i.i

_ZNKSt14default_deleteIN5ceres8internal25CompressedRowSparseMatrixEEclEPS2_.exit.i.i: ; preds = %1
  %4 = load ptr, ptr %3, align 8, !tbaa !3
  %5 = getelementptr inbounds nuw i8, ptr %4, i64 8
  %6 = load ptr, ptr %5, align 8
  tail call void %6(ptr noundef nonnull align 8 dereferenceable(144) %3) #33
  br label %_ZNSt10unique_ptrIN5ceres8internal25CompressedRowSparseMatrixESt14default_deleteIS2_EED2Ev.exit.i

_ZNSt10unique_ptrIN5ceres8internal25CompressedRowSparseMatrixESt14default_deleteIS2_EED2Ev.exit.i: ; preds = %_ZNKSt14default_deleteIN5ceres8internal25CompressedRowSparseMatrixEEclEPS2_.exit.i.i, %1
  store ptr null, ptr %2, align 8, !tbaa !170
  %7 = getelementptr inbounds nuw i8, ptr %0, i64 80
  %8 = load ptr, ptr %7, align 8, !tbaa !149
  %.not.i.i.i.i = icmp eq ptr %8, null
  br i1 %.not.i.i.i.i, label %_ZNSt6vectorISt5mutexSaIS0_EED2Ev.exit.i, label %9

9:                                                ; preds = %_ZNSt10unique_ptrIN5ceres8internal25CompressedRowSparseMatrixESt14default_deleteIS2_EED2Ev.exit.i
  %10 = getelementptr inbounds nuw i8, ptr %0, i64 96
  %11 = load ptr, ptr %10, align 8, !tbaa !152
  %12 = ptrtoint ptr %11 to i64
  %13 = ptrtoint ptr %8 to i64
  %14 = sub i64 %12, %13
  tail call void @_ZdlPvm(ptr noundef nonnull %8, i64 noundef %14) #32
  br label %_ZNSt6vectorISt5mutexSaIS0_EED2Ev.exit.i

_ZNSt6vectorISt5mutexSaIS0_EED2Ev.exit.i:         ; preds = %9, %_ZNSt10unique_ptrIN5ceres8internal25CompressedRowSparseMatrixESt14default_deleteIS2_EED2Ev.exit.i
  %15 = getelementptr inbounds nuw i8, ptr %0, i64 32
  %16 = load ptr, ptr %15, align 8, !tbaa !6
  %.not.i.i.i.i.i = icmp eq ptr %16, null
  br i1 %.not.i.i.i.i.i, label %_ZN5ceres8internal28BlockCRSJacobiPreconditionerD2Ev.exit, label %17

17:                                               ; preds = %_ZNSt6vectorISt5mutexSaIS0_EED2Ev.exit.i
  %18 = getelementptr inbounds nuw i8, ptr %0, i64 48
  %19 = load ptr, ptr %18, align 8, !tbaa !12
  %20 = ptrtoint ptr %19 to i64
  %21 = ptrtoint ptr %16 to i64
  %22 = sub i64 %20, %21
  tail call void @_ZdlPvm(ptr noundef nonnull %16, i64 noundef %22) #32
  br label %_ZN5ceres8internal28BlockCRSJacobiPreconditionerD2Ev.exit

_ZN5ceres8internal28BlockCRSJacobiPreconditionerD2Ev.exit: ; preds = %_ZNSt6vectorISt5mutexSaIS0_EED2Ev.exit.i, %17
  tail call void @_ZN5ceres8internal14PreconditionerD2Ev(ptr noundef nonnull align 8 dereferenceable(112) %0) #33
  tail call void @_ZdlPvm(ptr noundef nonnull %0, i64 noundef 112) #32
  ret void
}